target datalayout = "e-m:e-p270:32:32-p271:32:32-p272:64:64-i64:64-i128:128-f80:128-n8:16:32:64-S128"
target triple = "x86_64-pc-linux-gnu"

%struct.Vmem = type { ptr, i64, i64 }
%struct.GenContext_ = type { i8, ptr, ptr, ptr, ptr, ptr, ptr, ptr, ptr, ptr, ptr, ptr, ptr, ptr, ptr, ptr, ptr, ptr, ptr, ptr, ptr, ptr, ptr, ptr, ptr, ptr, ptr, ptr, ptr, ptr, ptr, ptr, ptr, %struct.anon.85, i32, i32, %struct.DebugContext, ptr, ptr, ptr, %struct.BEValue, i8, %union.SourceSpan, ptr, ptr, ptr, ptr }
%struct.anon.85 = type { ptr, ptr, ptr }
%struct.DebugContext = type { i16, ptr, ptr, %struct.DebugFile_, ptr, ptr, ptr, ptr }
%struct.DebugFile_ = type { i16, ptr }
%struct.BEValue = type { i8, i32, ptr, ptr, ptr }
%union.SourceSpan = type { i64 }
%struct.Ast_ = type { %union.SourceSpan, i32, i8, %union.anon.61 }
%union.anon.61 = type { %struct.AstDocDirective_ }
%struct.AstDocDirective_ = type { i8, %union.anon.64 }
%union.anon.64 = type { %struct.anon.65 }
%struct.anon.65 = type { ptr, %union.SourceSpan, i8 }
%struct.Type_ = type { i32, ptr, ptr, ptr, %union.anon.86, ptr, ptr, %union.anon.88 }
%union.anon.86 = type { ptr }
%union.anon.88 = type { %struct.TypeFunction }
%struct.TypeFunction = type { ptr, ptr, ptr }
%struct.FlowCommon = type { i32, i8 }
%struct.Expr_ = type { ptr, %union.SourceSpan, i16, %union.anon.29 }
%union.anon.29 = type { %struct.ExprAnySwitch }
%struct.ExprAnySwitch = type { i8, %union.anon.31 }
%union.anon.31 = type { %struct.anon.32 }
%struct.anon.32 = type { ptr, %union.SourceSpan, ptr }
%struct.AstSwitchStmt = type { %struct.FlowCommon, %union.anon.80 }
%union.anon.80 = type { %struct.anon.81 }
%struct.anon.81 = type { i32, i32, ptr, ptr }

@type_typeid = external global ptr, align 8
@type_bool = external global ptr, align 8
@expr_arena = external global %struct.Vmem, align 8

; Function Attrs: nounwind uwtable
define internal ptr @exprptrzero(i32 noundef %0) #0 {
  %2 = alloca i32, align 4
  store i32 %0, ptr %2, align 4
  %3 = load i32, ptr %2, align 4
  %4 = icmp ne i32 %3, 0
  br i1 %4, label %5, label %10

5:                                                ; preds = %1
  %6 = load ptr, ptr @expr_arena, align 8
  %7 = load i32, ptr %2, align 4
  %8 = zext i32 %7 to i64
  %9 = getelementptr inbounds %struct.Expr_, ptr %6, i64 %8
  br label %11

10:                                               ; preds = %1
  br label %11

11:                                               ; preds = %10, %5
  %12 = phi ptr [ %9, %5 ], [ null, %10 ]
  ret ptr %12
}

; Function Attrs: nounwind uwtable
define dso_local void @llvm_emit_switch(ptr noundef %0, ptr noundef %1) #0 {
  %3 = alloca ptr, align 8
  %4 = alloca i32, align 4
  %5 = alloca ptr, align 8
  %6 = alloca ptr, align 8
  %7 = alloca i64, align 8
  %8 = alloca ptr, align 8
  %9 = alloca ptr, align 8
  %10 = alloca ptr, align 8
  %11 = alloca ptr, align 8
  %12 = alloca %struct.BEValue, align 8
  %13 = alloca ptr, align 8
  %14 = alloca i8, align 1
  store ptr %0, ptr %10, align 8
  store ptr %1, ptr %11, align 8
  br label %15

15:                                               ; preds = %2
  %16 = load ptr, ptr %10, align 8
  store ptr %16, ptr %8, align 8
  %17 = load ptr, ptr %8, align 8
  %18 = getelementptr inbounds %struct.GenContext_, ptr %17, i32 0, i32 36
  %19 = getelementptr inbounds %struct.DebugContext, ptr %18, i32 0, i32 1
  %20 = load ptr, ptr %19, align 8
  %21 = icmp ne ptr %20, null
  br i1 %21, label %22, label %28

22:                                               ; preds = %15
  %23 = load ptr, ptr %10, align 8
  %24 = load ptr, ptr %11, align 8
  %25 = getelementptr inbounds %struct.Ast_, ptr %24, i32 0, i32 0
  %26 = getelementptr inbounds %union.SourceSpan, ptr %25, i32 0, i32 0
  %27 = load i64, ptr %26, align 8
  call void @llvm_debug_push_lexical_scope(ptr noundef %23, i64 %27)
  br label %28

28:                                               ; preds = %22, %15
  br label %29

29:                                               ; preds = %28
  %30 = load ptr, ptr %11, align 8
  %31 = getelementptr inbounds %struct.Ast_, ptr %30, i32 0, i32 3
  %32 = getelementptr inbounds %struct.AstSwitchStmt, ptr %31, i32 0, i32 1
  %33 = getelementptr inbounds %struct.anon.81, ptr %32, i32 0, i32 0
  %34 = load i32, ptr %33, align 8
  %35 = call ptr @exprptrzero(i32 noundef %34)
  store ptr %35, ptr %13, align 8
  %36 = load ptr, ptr %13, align 8
  %37 = icmp ne ptr %36, null
  br i1 %37, label %38, label %46

38:                                               ; preds = %29
  %39 = load ptr, ptr %13, align 8
  %40 = getelementptr inbounds %struct.Expr_, ptr %39, i32 0, i32 0
  %41 = load ptr, ptr %40, align 8
  %42 = getelementptr inbounds %struct.Type_, ptr %41, i32 0, i32 1
  %43 = load ptr, ptr %42, align 8
  %44 = load ptr, ptr @type_typeid, align 8
  %45 = icmp eq ptr %43, %44
  br label %46

46:                                               ; preds = %38, %29
  %47 = phi i1 [ false, %29 ], [ %45, %38 ]
  %48 = zext i1 %47 to i8
  store i8 %48, ptr %14, align 1
  %49 = load ptr, ptr %13, align 8
  %50 = icmp ne ptr %49, null
  br i1 %50, label %51, label %54

51:                                               ; preds = %46
  %52 = load ptr, ptr %10, align 8
  %53 = load ptr, ptr %13, align 8
  call void @llvm_emit_decl_expr_list(ptr noundef %52, ptr noundef %12, ptr noundef %53, i1 noundef zeroext false)
  br label %84

54:                                               ; preds = %46
  %55 = load ptr, ptr %10, align 8
  %56 = load ptr, ptr @type_bool, align 8
  store ptr %55, ptr %5, align 8
  store ptr %56, ptr %6, align 8
  store i64 1, ptr %7, align 8
  %57 = load ptr, ptr %6, align 8
  %58 = call ptr @type_lowering(ptr noundef %57)
  store ptr %58, ptr %6, align 8
  %59 = load ptr, ptr %5, align 8
  %60 = load ptr, ptr %6, align 8
  %61 = call ptr @llvm_get_type(ptr noundef %59, ptr noundef %60) #7
  %62 = load i64, ptr %7, align 8
  %63 = load ptr, ptr %6, align 8
  store ptr %63, ptr %3, align 8
  %64 = load ptr, ptr %3, align 8
  %65 = load i32, ptr %64, align 8
  store i32 %65, ptr %4, align 4
  %66 = load i32, ptr %4, align 4
  %67 = icmp eq i32 %66, 31
  br i1 %67, label %68, label %73

68:                                               ; preds = %54
  %69 = load ptr, ptr %3, align 8
  %70 = getelementptr inbounds %struct.Type_, ptr %69, i32 0, i32 1
  %71 = load ptr, ptr %70, align 8
  %72 = load i32, ptr %71, align 8
  store i32 %72, ptr %4, align 4
  br label %73

73:                                               ; preds = %68, %54
  %74 = load i32, ptr %4, align 4
  %75 = icmp uge i32 %74, 3
  br i1 %75, label %76, label %79

76:                                               ; preds = %73
  %77 = load i32, ptr %4, align 4
  %78 = icmp ule i32 %77, 7
  br label %79

79:                                               ; preds = %76, %73
  %80 = phi i1 [ false, %73 ], [ %78, %76 ]
  %81 = zext i1 %80 to i32
  %82 = call ptr @LLVMConstInt(ptr noundef %61, i64 noundef %62, i32 noundef %81) #7
  %83 = load ptr, ptr @type_bool, align 8
  call void @llvm_value_set(ptr noundef %12, ptr noundef %82, ptr noundef %83)
  br label %84

84:                                               ; preds = %79, %51
  %85 = load ptr, ptr %10, align 8
  %86 = load ptr, ptr %11, align 8
  %87 = load i8, ptr %14, align 1
  %88 = trunc i8 %87 to i1
  call void @llvm_emit_switch_body(ptr noundef %85, ptr noundef %12, ptr noundef %86, i1 noundef zeroext %88)
  br label %89

89:                                               ; preds = %84
  %90 = load ptr, ptr %10, align 8
  store ptr %90, ptr %9, align 8
  %91 = load ptr, ptr %9, align 8
  %92 = getelementptr inbounds %struct.GenContext_, ptr %91, i32 0, i32 36
  %93 = getelementptr inbounds %struct.DebugContext, ptr %92, i32 0, i32 1
  %94 = load ptr, ptr %93, align 8
  %95 = icmp ne ptr %94, null
  br i1 %95, label %96, label %98

96:                                               ; preds = %89
  %97 = load ptr, ptr %10, align 8
  call void @llvm_debug_scope_pop(ptr noundef %97)
  br label %98

98:                                               ; preds = %96, %89
  br label %99

99:                                               ; preds = %98
  ret void
}