; Function Attrs: nounwind uwtable
define dso_local void @llvm_emit_switch(ptr noundef %0, ptr nocapture noundef %1) local_unnamed_addr #0 {
  %3 = alloca %struct.BEValue, align 8
  %4 = getelementptr inbounds i8, ptr %0, i64 304
  %5 = load ptr, ptr %4, align 8
  %.not = icmp eq ptr %5, null
  br i1 %.not, label %8, label %6

6:                                                ; preds = %2
  %7 = load i64, ptr %1, align 8
  tail call void @llvm_debug_push_lexical_scope(ptr noundef nonnull %0, i64 %7) #9
  br label %8

8:                                                ; preds = %2, %6
  %9 = getelementptr inbounds i8, ptr %1, i64 24
  %10 = load i32, ptr %9, align 8
  %.not.i = icmp eq i32 %10, 0
  %11 = load ptr, ptr @expr_arena, align 8
  %.not2830 = icmp eq ptr %11, null
  %.not28 = select i1 %.not.i, i1 true, i1 %.not2830
  br i1 %.not28, label %20, label %12

12:                                               ; preds = %8
  %13 = zext i32 %10 to i64
  %14 = getelementptr inbounds %struct.Expr_, ptr %11, i64 %13
  %15 = load ptr, ptr %14, align 8
  %16 = getelementptr inbounds i8, ptr %15, i64 8
  %17 = load ptr, ptr %16, align 8
  %18 = load ptr, ptr @type_typeid, align 8
  %19 = icmp eq ptr %17, %18
  call fastcc void @llvm_emit_decl_expr_list(ptr noundef nonnull %0, ptr noundef nonnull %3, ptr noundef nonnull %14, i1 noundef zeroext false)
  br label %36

20:                                               ; preds = %8
  %21 = load ptr, ptr @type_bool, align 8
  %22 = tail call fastcc ptr @type_lowering(ptr noundef %21)
  %23 = tail call ptr @llvm_get_type(ptr noundef nonnull %0, ptr noundef %22) #9
  %24 = load i32, ptr %22, align 8
  %25 = icmp eq i32 %24, 31
  br i1 %25, label %26, label %30

26:                                               ; preds = %20
  %27 = getelementptr inbounds i8, ptr %22, i64 8
  %28 = load ptr, ptr %27, align 8
  %29 = load i32, ptr %28, align 8
  br label %30

30:                                               ; preds = %26, %20
  %.0 = phi i32 [ %29, %26 ], [ %24, %20 ]
  %31 = add i32 %.0, -3
  %32 = icmp ult i32 %31, 5
  %33 = zext i1 %32 to i32
  %34 = tail call ptr @LLVMConstInt(ptr noundef %23, i64 noundef 1, i32 noundef %33) #9
  %35 = load ptr, ptr @type_bool, align 8
  call void @llvm_value_set(ptr noundef nonnull %3, ptr noundef %34, ptr noundef %35) #9
  br label %36

36:                                               ; preds = %30, %12
  %37 = phi i1 [ false, %30 ], [ %19, %12 ]
  call fastcc void @llvm_emit_switch_body(ptr noundef nonnull %0, ptr noundef nonnull %3, ptr noundef nonnull %1, i1 noundef zeroext %37)
  %38 = load ptr, ptr %4, align 8
  %.not29 = icmp eq ptr %38, null
  br i1 %.not29, label %40, label %39

39:                                               ; preds = %36
  call void @llvm_debug_scope_pop(ptr noundef nonnull %0) #9
  br label %40

40:                                               ; preds = %36, %39
  ret void
}